target datalayout = "e-m:e-p270:32:32-p271:32:32-p272:64:64-i64:64-i128:128-f80:128-n8:16:32:64-S128"
target triple = "x86_64-pc-linux-gnu"

@libctx = internal global ptr null, align 8
@.str.3 = private unnamed_addr constant [32 x i8] c"../openssl/test/evp_skey_test.c\00", align 1
@.str.11 = private unnamed_addr constant [27 x i8] c"ctx = EVP_CIPHER_CTX_new()\00", align 1
@.str.13 = private unnamed_addr constant [2 x i8] c"0\00", align 1
@__const.test_aes_raw_skey.data = private unnamed_addr constant [32 x i8] c"\02\02\02\02\02\02\02\02\02\02\02\02\02\02\02\02\02\02\02\02\02\02\02\02\02\02\02\02\02\02\02\02", align 16
@.str.18 = private unnamed_addr constant [8 x i8] c"default\00", align 1
@deflprov = internal global ptr null, align 8
@.str.19 = private unnamed_addr constant [9 x i8] c"deflprov\00", align 1
@.str.20 = private unnamed_addr constant [12 x i8] c"AES-128-CBC\00", align 1
@.str.21 = private unnamed_addr constant [17 x i8] c"provider=default\00", align 1
@.str.22 = private unnamed_addr constant [8 x i8] c"aes_cbc\00", align 1
@.str.23 = private unnamed_addr constant [8 x i8] c"AES-128\00", align 1
@.str.24 = private unnamed_addr constant [5 x i8] c"skey\00", align 1
@.str.25 = private unnamed_addr constant [56 x i8] c"EVP_SKEY_get_raw_key(skey, &export_key, &export_length)\00", align 1
@.str.26 = private unnamed_addr constant [8 x i8] c"aes_key\00", align 1
@.str.27 = private unnamed_addr constant [11 x i8] c"export_key\00", align 1
@.str.28 = private unnamed_addr constant [66 x i8] c"EVP_CipherInit_SKEY(ctx, aes_cbc, skey, aes_iv, IV_SIZE, 1, NULL)\00", align 1
@.str.29 = private unnamed_addr constant [65 x i8] c"EVP_CipherUpdate(ctx, encrypted_skey, &enc_len, data, DATA_SIZE)\00", align 1
@.str.30 = private unnamed_addr constant [57 x i8] c"EVP_CipherFinal(ctx, encrypted_skey + enc_len, &fin_len)\00", align 1
@.str.31 = private unnamed_addr constant [59 x i8] c"EVP_CipherInit_ex2(ctx, aes_cbc, aes_key, aes_iv, 1, NULL)\00", align 1
@.str.32 = private unnamed_addr constant [64 x i8] c"EVP_CipherUpdate(ctx, encrypted_raw, &enc_len, data, DATA_SIZE)\00", align 1
@.str.33 = private unnamed_addr constant [56 x i8] c"EVP_CipherFinal(ctx, encrypted_raw + enc_len, &fin_len)\00", align 1
@.str.34 = private unnamed_addr constant [15 x i8] c"encrypted_skey\00", align 1
@.str.35 = private unnamed_addr constant [14 x i8] c"encrypted_raw\00", align 1

; Function Attrs: nounwind uwtable
define internal i32 @test_aes_raw_skey() #0 {
  %1 = alloca i32, align 4
  %2 = alloca [32 x i8], align 16
  %3 = alloca [16 x i8], align 16
  %4 = alloca [16 x i8], align 16
  %5 = alloca [48 x i8], align 16
  %6 = alloca [48 x i8], align 16
  %7 = alloca i32, align 4
  %8 = alloca i32, align 4
  %9 = alloca ptr, align 8
  %10 = alloca i64, align 8
  %11 = alloca ptr, align 8
  %12 = alloca ptr, align 8
  %13 = alloca ptr, align 8
  %14 = alloca ptr, align 8
  %15 = alloca ptr, align 8
  %16 = alloca i32, align 4
  %17 = alloca i32, align 4
  call void @llvm.lifetime.start.p0(i64 32, ptr %2) #5
  call void @llvm.memcpy.p0.p0.i64(ptr align 16 %2, ptr align 16 @__const.test_aes_raw_skey.data, i64 32, i1 false)
  call void @llvm.lifetime.start.p0(i64 16, ptr %3) #5
  call void @llvm.lifetime.start.p0(i64 16, ptr %4) #5
  call void @llvm.lifetime.start.p0(i64 48, ptr %5) #5
  call void @llvm.lifetime.start.p0(i64 48, ptr %6) #5
  call void @llvm.lifetime.start.p0(i64 4, ptr %7) #5
  call void @llvm.lifetime.start.p0(i64 4, ptr %8) #5
  call void @llvm.lifetime.start.p0(i64 8, ptr %9) #5
  store ptr null, ptr %9, align 8, !tbaa !22
  call void @llvm.lifetime.start.p0(i64 8, ptr %10) #5
  call void @llvm.lifetime.start.p0(i64 8, ptr %11) #5
  store ptr null, ptr %11, align 8, !tbaa !15
  call void @llvm.lifetime.start.p0(i64 8, ptr %12) #5
  store ptr null, ptr %12, align 8, !tbaa !17
  call void @llvm.lifetime.start.p0(i64 8, ptr %13) #5
  store ptr null, ptr %13, align 8, !tbaa !13
  call void @llvm.lifetime.start.p0(i64 8, ptr %14) #5
  store ptr null, ptr %14, align 8, !tbaa !27
  call void @llvm.lifetime.start.p0(i64 8, ptr %15) #5
  store ptr null, ptr %15, align 8, !tbaa !19
  call void @llvm.lifetime.start.p0(i64 4, ptr %16) #5
  store i32 0, ptr %16, align 4, !tbaa !9
  %18 = load ptr, ptr @libctx, align 8, !tbaa !4
  %19 = call ptr @OSSL_PROVIDER_load(ptr noundef %18, ptr noundef @.str.18)
  store ptr %19, ptr @deflprov, align 8, !tbaa !11
  %20 = load ptr, ptr @deflprov, align 8, !tbaa !11
  %21 = call i32 @test_ptr(ptr noundef @.str.3, i32 noundef 119, ptr noundef @.str.19, ptr noundef %20)
  %22 = icmp ne i32 %21, 0
  br i1 %22, label %24, label %23

23:                                               ; preds = %0
  store i32 0, ptr %1, align 4
  store i32 1, ptr %17, align 4
  br label %126

24:                                               ; preds = %0
  %25 = getelementptr inbounds [48 x i8], ptr %5, i64 0, i64 0
  call void @llvm.memset.p0.i64(ptr align 16 %25, i8 0, i64 48, i1 false)
  %26 = getelementptr inbounds [48 x i8], ptr %6, i64 0, i64 0
  call void @llvm.memset.p0.i64(ptr align 16 %26, i8 0, i64 48, i1 false)
  %27 = getelementptr inbounds [16 x i8], ptr %3, i64 0, i64 0
  call void @llvm.memset.p0.i64(ptr align 16 %27, i8 1, i64 16, i1 false)
  %28 = getelementptr inbounds [16 x i8], ptr %4, i64 0, i64 0
  call void @llvm.memset.p0.i64(ptr align 16 %28, i8 2, i64 16, i1 false)
  %29 = load ptr, ptr @libctx, align 8, !tbaa !4
  %30 = call ptr @EVP_CIPHER_fetch(ptr noundef %29, ptr noundef @.str.20, ptr noundef @.str.21)
  store ptr %30, ptr %11, align 8, !tbaa !15
  %31 = load ptr, ptr %11, align 8, !tbaa !15
  %32 = call i32 @test_ptr(ptr noundef @.str.3, i32 noundef 129, ptr noundef @.str.22, ptr noundef %31)
  %33 = icmp ne i32 %32, 0
  br i1 %33, label %35, label %34

34:                                               ; preds = %24
  br label %117

35:                                               ; preds = %24
  %36 = load ptr, ptr @libctx, align 8, !tbaa !4
  %37 = getelementptr inbounds [16 x i8], ptr %3, i64 0, i64 0
  %38 = call ptr @EVP_SKEY_import_raw_key(ptr noundef %36, ptr noundef @.str.23, ptr noundef %37, i64 noundef 16, ptr noundef null)
  store ptr %38, ptr %13, align 8, !tbaa !13
  %39 = load ptr, ptr %13, align 8, !tbaa !13
  %40 = call i32 @test_ptr(ptr noundef @.str.3, i32 noundef 134, ptr noundef @.str.24, ptr noundef %39)
  %41 = icmp ne i32 %40, 0
  br i1 %41, label %43, label %42

42:                                               ; preds = %35
  br label %117

43:                                               ; preds = %35
  %44 = load ptr, ptr %13, align 8, !tbaa !13
  %45 = call i32 @EVP_SKEY_get_raw_key(ptr noundef %44, ptr noundef %9, ptr noundef %10)
  %46 = call i32 @test_int_gt(ptr noundef @.str.3, i32 noundef 137, ptr noundef @.str.25, ptr noundef @.str.13, i32 noundef %45, i32 noundef 0)
  %47 = icmp ne i32 %46, 0
  br i1 %47, label %48, label %54

48:                                               ; preds = %43
  %49 = getelementptr inbounds [16 x i8], ptr %3, i64 0, i64 0
  %50 = load ptr, ptr %9, align 8, !tbaa !22
  %51 = load i64, ptr %10, align 8, !tbaa !25
  %52 = call i32 @test_mem_eq(ptr noundef @.str.3, i32 noundef 138, ptr noundef @.str.26, ptr noundef @.str.27, ptr noundef %49, i64 noundef 16, ptr noundef %50, i64 noundef %51)
  %53 = icmp ne i32 %52, 0
  br i1 %53, label %55, label %54

54:                                               ; preds = %48, %43
  br label %117

55:                                               ; preds = %48
  store i32 48, ptr %7, align 4, !tbaa !9
  store i32 0, ptr %8, align 4, !tbaa !9
  %56 = call ptr @EVP_CIPHER_CTX_new()
  store ptr %56, ptr %12, align 8, !tbaa !17
  %57 = call i32 @test_ptr(ptr noundef @.str.3, i32 noundef 143, ptr noundef @.str.11, ptr noundef %56)
  %58 = icmp ne i32 %57, 0
  br i1 %58, label %59, label %83

59:                                               ; preds = %55
  %60 = load ptr, ptr %12, align 8, !tbaa !17
  %61 = load ptr, ptr %11, align 8, !tbaa !15
  %62 = load ptr, ptr %13, align 8, !tbaa !13
  %63 = getelementptr inbounds [16 x i8], ptr %4, i64 0, i64 0
  %64 = call i32 @EVP_CipherInit_SKEY(ptr noundef %60, ptr noundef %61, ptr noundef %62, ptr noundef %63, i64 noundef 16, i32 noundef 1, ptr noundef null)
  %65 = call i32 @test_int_gt(ptr noundef @.str.3, i32 noundef 144, ptr noundef @.str.28, ptr noundef @.str.13, i32 noundef %64, i32 noundef 0)
  %66 = icmp ne i32 %65, 0
  br i1 %66, label %67, label %83

67:                                               ; preds = %59
  %68 = load ptr, ptr %12, align 8, !tbaa !17
  %69 = getelementptr inbounds [48 x i8], ptr %5, i64 0, i64 0
  %70 = getelementptr inbounds [32 x i8], ptr %2, i64 0, i64 0
  %71 = call i32 @EVP_CipherUpdate(ptr noundef %68, ptr noundef %69, ptr noundef %7, ptr noundef %70, i32 noundef 32)
  %72 = call i32 @test_int_gt(ptr noundef @.str.3, i32 noundef 145, ptr noundef @.str.29, ptr noundef @.str.13, i32 noundef %71, i32 noundef 0)
  %73 = icmp ne i32 %72, 0
  br i1 %73, label %74, label %83

74:                                               ; preds = %67
  %75 = load ptr, ptr %12, align 8, !tbaa !17
  %76 = getelementptr inbounds [48 x i8], ptr %5, i64 0, i64 0
  %77 = load i32, ptr %7, align 4, !tbaa !9
  %78 = sext i32 %77 to i64
  %79 = getelementptr inbounds i8, ptr %76, i64 %78
  %80 = call i32 @EVP_CipherFinal(ptr noundef %75, ptr noundef %79, ptr noundef %8)
  %81 = call i32 @test_int_gt(ptr noundef @.str.3, i32 noundef 146, ptr noundef @.str.30, ptr noundef @.str.13, i32 noundef %80, i32 noundef 0)
  %82 = icmp ne i32 %81, 0
  br i1 %82, label %84, label %83

83:                                               ; preds = %74, %67, %59, %55
  br label %117

84:                                               ; preds = %74
  %85 = load ptr, ptr %12, align 8, !tbaa !17
  call void @EVP_CIPHER_CTX_free(ptr noundef %85)
  %86 = call ptr @EVP_CIPHER_CTX_new()
  store ptr %86, ptr %12, align 8, !tbaa !17
  store i32 48, ptr %7, align 4, !tbaa !9
  store i32 0, ptr %8, align 4, !tbaa !9
  %87 = load ptr, ptr %12, align 8, !tbaa !17
  %88 = load ptr, ptr %11, align 8, !tbaa !15
  %89 = getelementptr inbounds [16 x i8], ptr %3, i64 0, i64 0
  %90 = getelementptr inbounds [16 x i8], ptr %4, i64 0, i64 0
  %91 = call i32 @EVP_CipherInit_ex2(ptr noundef %87, ptr noundef %88, ptr noundef %89, ptr noundef %90, i32 noundef 1, ptr noundef null)
  %92 = call i32 @test_int_gt(ptr noundef @.str.3, i32 noundef 154, ptr noundef @.str.31, ptr noundef @.str.13, i32 noundef %91, i32 noundef 0)
  %93 = icmp ne i32 %92, 0
  br i1 %93, label %94, label %115

94:                                               ; preds = %84
  %95 = load ptr, ptr %12, align 8, !tbaa !17
  %96 = getelementptr inbounds [48 x i8], ptr %6, i64 0, i64 0
  %97 = getelementptr inbounds [32 x i8], ptr %2, i64 0, i64 0
  %98 = call i32 @EVP_CipherUpdate(ptr noundef %95, ptr noundef %96, ptr noundef %7, ptr noundef %97, i32 noundef 32)
  %99 = call i32 @test_int_gt(ptr noundef @.str.3, i32 noundef 155, ptr noundef @.str.32, ptr noundef @.str.13, i32 noundef %98, i32 noundef 0)
  %100 = icmp ne i32 %99, 0
  br i1 %100, label %101, label %115

101:                                              ; preds = %94
  %102 = load ptr, ptr %12, align 8, !tbaa !17
  %103 = getelementptr inbounds [48 x i8], ptr %6, i64 0, i64 0
  %104 = load i32, ptr %7, align 4, !tbaa !9
  %105 = sext i32 %104 to i64
  %106 = getelementptr inbounds i8, ptr %103, i64 %105
  %107 = call i32 @EVP_CipherFinal(ptr noundef %102, ptr noundef %106, ptr noundef %8)
  %108 = call i32 @test_int_gt(ptr noundef @.str.3, i32 noundef 156, ptr noundef @.str.33, ptr noundef @.str.13, i32 noundef %107, i32 noundef 0)
  %109 = icmp ne i32 %108, 0
  br i1 %109, label %110, label %115

110:                                              ; preds = %101
  %111 = getelementptr inbounds [48 x i8], ptr %5, i64 0, i64 0
  %112 = getelementptr inbounds [48 x i8], ptr %6, i64 0, i64 0
  %113 = call i32 @test_mem_eq(ptr noundef @.str.3, i32 noundef 157, ptr noundef @.str.34, ptr noundef @.str.35, ptr noundef %111, i64 noundef 48, ptr noundef %112, i64 noundef 48)
  %114 = icmp ne i32 %113, 0
  br i1 %114, label %116, label %115

115:                                              ; preds = %110, %101, %94, %84
  br label %117

116:                                              ; preds = %110
  store i32 1, ptr %16, align 4, !tbaa !9
  br label %117

117:                                              ; preds = %116, %115, %83, %54, %42, %34
  %118 = load ptr, ptr %15, align 8, !tbaa !19
  call void @OSSL_PARAM_free(ptr noundef %118)
  %119 = load ptr, ptr %14, align 8, !tbaa !27
  call void @OSSL_PARAM_BLD_free(ptr noundef %119)
  %120 = load ptr, ptr %13, align 8, !tbaa !13
  call void @EVP_SKEY_free(ptr noundef %120)
  %121 = load ptr, ptr %11, align 8, !tbaa !15
  call void @EVP_CIPHER_free(ptr noundef %121)
  %122 = load ptr, ptr %12, align 8, !tbaa !17
  call void @EVP_CIPHER_CTX_free(ptr noundef %122)
  %123 = load ptr, ptr @deflprov, align 8, !tbaa !11
  %124 = call i32 @OSSL_PROVIDER_unload(ptr noundef %123)
  %125 = load i32, ptr %16, align 4, !tbaa !9
  store i32 %125, ptr %1, align 4
  store i32 1, ptr %17, align 4
  br label %126

126:                                              ; preds = %117, %23
  call void @llvm.lifetime.end.p0(i64 4, ptr %16) #5
  call void @llvm.lifetime.end.p0(i64 8, ptr %15) #5
  call void @llvm.lifetime.end.p0(i64 8, ptr %14) #5
  call void @llvm.lifetime.end.p0(i64 8, ptr %13) #5
  call void @llvm.lifetime.end.p0(i64 8, ptr %12) #5
  call void @llvm.lifetime.end.p0(i64 8, ptr %11) #5
  call void @llvm.lifetime.end.p0(i64 8, ptr %10) #5
  call void @llvm.lifetime.end.p0(i64 8, ptr %9) #5
  call void @llvm.lifetime.end.p0(i64 4, ptr %8) #5
  call void @llvm.lifetime.end.p0(i64 4, ptr %7) #5
  call void @llvm.lifetime.end.p0(i64 48, ptr %6) #5
  call void @llvm.lifetime.end.p0(i64 48, ptr %5) #5
  call void @llvm.lifetime.end.p0(i64 16, ptr %4) #5
  call void @llvm.lifetime.end.p0(i64 16, ptr %3) #5
  call void @llvm.lifetime.end.p0(i64 32, ptr %2) #5
  %127 = load i32, ptr %1, align 4
  ret i32 %127
}